target datalayout = "e-m:e-p270:32:32-p271:32:32-p272:64:64-i64:64-i128:128-f80:128-n8:16:32:64-S128"
target triple = "x86_64-pc-linux-gnu"

@ett_s7comm_szl_0131_0005_funkt_0 = internal global i32 0, align 4
@hf_s7comm_szl_0131_0005_index = internal global i32 0, align 4
@hf_s7comm_szl_0131_0005_funkt_0 = internal global i32 0, align 4
@hf_s7comm_szl_0131_0005_funkt_1 = internal global i32 0, align 4
@hf_s7comm_szl_0131_0005_funkt_2 = internal global i32 0, align 4
@hf_s7comm_szl_0131_0005_funkt_3 = internal global i32 0, align 4
@hf_s7comm_szl_0131_0005_funkt_4 = internal global i32 0, align 4
@hf_s7comm_szl_0131_0005_funkt_5 = internal global i32 0, align 4
@hf_s7comm_szl_0131_0005_funkt_6 = internal global i32 0, align 4
@hf_s7comm_szl_0131_0005_funkt_7 = internal global i32 0, align 4
@hf_s7comm_szl_0131_0005_anz_sen = internal global i32 0, align 4
@hf_s7comm_szl_0131_0005_anz_ein = internal global i32 0, align 4
@hf_s7comm_szl_0131_0005_anz_mel = internal global i32 0, align 4
@hf_s7comm_szl_0131_0005_res = internal global i32 0, align 4

; Function Attrs: null_pointer_is_valid sspstrong uwtable
define internal i32 @s7comm_decode_szl_id_0131_idx_0005(ptr noundef %0, ptr noundef %1, i32 noundef %2) #0 {
  %4 = alloca ptr, align 8
  %5 = alloca ptr, align 8
  %6 = alloca i32, align 4
  store ptr %0, ptr %4, align 8
  store ptr %1, ptr %5, align 8
  store i32 %2, ptr %6, align 4
  %7 = load ptr, ptr %5, align 8
  %8 = load i32, ptr @hf_s7comm_szl_0131_0005_index, align 4
  %9 = load ptr, ptr %4, align 8
  %10 = load i32, ptr %6, align 4
  %11 = call ptr @proto_tree_add_item(ptr noundef %7, i32 noundef %8, ptr noundef %9, i32 noundef %10, i32 noundef 2, i32 noundef 0)
  %12 = load i32, ptr %6, align 4
  %13 = add i32 %12, 2
  store i32 %13, ptr %6, align 4
  %14 = load ptr, ptr %5, align 8
  %15 = load ptr, ptr %4, align 8
  %16 = load i32, ptr %6, align 4
  %17 = load i32, ptr @hf_s7comm_szl_0131_0005_funkt_0, align 4
  %18 = load i32, ptr @ett_s7comm_szl_0131_0005_funkt_0, align 4
  %19 = call ptr @proto_tree_add_bitmask(ptr noundef %14, ptr noundef %15, i32 noundef %16, i32 noundef %17, i32 noundef %18, ptr noundef @s7comm_szl_0131_0005_funkt_0_fields, i32 noundef 0)
  %20 = load i32, ptr %6, align 4
  %21 = add i32 %20, 1
  store i32 %21, ptr %6, align 4
  %22 = load ptr, ptr %5, align 8
  %23 = load i32, ptr @hf_s7comm_szl_0131_0005_funkt_1, align 4
  %24 = load ptr, ptr %4, align 8
  %25 = load i32, ptr %6, align 4
  %26 = call ptr @proto_tree_add_item(ptr noundef %22, i32 noundef %23, ptr noundef %24, i32 noundef %25, i32 noundef 1, i32 noundef 0)
  %27 = load i32, ptr %6, align 4
  %28 = add i32 %27, 1
  store i32 %28, ptr %6, align 4
  %29 = load ptr, ptr %5, align 8
  %30 = load i32, ptr @hf_s7comm_szl_0131_0005_funkt_2, align 4
  %31 = load ptr, ptr %4, align 8
  %32 = load i32, ptr %6, align 4
  %33 = call ptr @proto_tree_add_item(ptr noundef %29, i32 noundef %30, ptr noundef %31, i32 noundef %32, i32 noundef 1, i32 noundef 0)
  %34 = load i32, ptr %6, align 4
  %35 = add i32 %34, 1
  store i32 %35, ptr %6, align 4
  %36 = load ptr, ptr %5, align 8
  %37 = load i32, ptr @hf_s7comm_szl_0131_0005_funkt_3, align 4
  %38 = load ptr, ptr %4, align 8
  %39 = load i32, ptr %6, align 4
  %40 = call ptr @proto_tree_add_item(ptr noundef %36, i32 noundef %37, ptr noundef %38, i32 noundef %39, i32 noundef 1, i32 noundef 0)
  %41 = load i32, ptr %6, align 4
  %42 = add i32 %41, 1
  store i32 %42, ptr %6, align 4
  %43 = load ptr, ptr %5, align 8
  %44 = load i32, ptr @hf_s7comm_szl_0131_0005_funkt_4, align 4
  %45 = load ptr, ptr %4, align 8
  %46 = load i32, ptr %6, align 4
  %47 = call ptr @proto_tree_add_item(ptr noundef %43, i32 noundef %44, ptr noundef %45, i32 noundef %46, i32 noundef 1, i32 noundef 0)
  %48 = load i32, ptr %6, align 4
  %49 = add i32 %48, 1
  store i32 %49, ptr %6, align 4
  %50 = load ptr, ptr %5, align 8
  %51 = load i32, ptr @hf_s7comm_szl_0131_0005_funkt_5, align 4
  %52 = load ptr, ptr %4, align 8
  %53 = load i32, ptr %6, align 4
  %54 = call ptr @proto_tree_add_item(ptr noundef %50, i32 noundef %51, ptr noundef %52, i32 noundef %53, i32 noundef 1, i32 noundef 0)
  %55 = load i32, ptr %6, align 4
  %56 = add i32 %55, 1
  store i32 %56, ptr %6, align 4
  %57 = load ptr, ptr %5, align 8
  %58 = load i32, ptr @hf_s7comm_szl_0131_0005_funkt_6, align 4
  %59 = load ptr, ptr %4, align 8
  %60 = load i32, ptr %6, align 4
  %61 = call ptr @proto_tree_add_item(ptr noundef %57, i32 noundef %58, ptr noundef %59, i32 noundef %60, i32 noundef 1, i32 noundef 0)
  %62 = load i32, ptr %6, align 4
  %63 = add i32 %62, 1
  store i32 %63, ptr %6, align 4
  %64 = load ptr, ptr %5, align 8
  %65 = load i32, ptr @hf_s7comm_szl_0131_0005_funkt_7, align 4
  %66 = load ptr, ptr %4, align 8
  %67 = load i32, ptr %6, align 4
  %68 = call ptr @proto_tree_add_item(ptr noundef %64, i32 noundef %65, ptr noundef %66, i32 noundef %67, i32 noundef 1, i32 noundef 0)
  %69 = load i32, ptr %6, align 4
  %70 = add i32 %69, 1
  store i32 %70, ptr %6, align 4
  %71 = load ptr, ptr %5, align 8
  %72 = load i32, ptr @hf_s7comm_szl_0131_0005_anz_sen, align 4
  %73 = load ptr, ptr %4, align 8
  %74 = load i32, ptr %6, align 4
  %75 = call ptr @proto_tree_add_item(ptr noundef %71, i32 noundef %72, ptr noundef %73, i32 noundef %74, i32 noundef 2, i32 noundef 0)
  %76 = load i32, ptr %6, align 4
  %77 = add i32 %76, 2
  store i32 %77, ptr %6, align 4
  %78 = load ptr, ptr %5, align 8
  %79 = load i32, ptr @hf_s7comm_szl_0131_0005_anz_ein, align 4
  %80 = load ptr, ptr %4, align 8
  %81 = load i32, ptr %6, align 4
  %82 = call ptr @proto_tree_add_item(ptr noundef %78, i32 noundef %79, ptr noundef %80, i32 noundef %81, i32 noundef 2, i32 noundef 0)
  %83 = load i32, ptr %6, align 4
  %84 = add i32 %83, 2
  store i32 %84, ptr %6, align 4
  %85 = load ptr, ptr %5, align 8
  %86 = load i32, ptr @hf_s7comm_szl_0131_0005_anz_mel, align 4
  %87 = load ptr, ptr %4, align 8
  %88 = load i32, ptr %6, align 4
  %89 = call ptr @proto_tree_add_item(ptr noundef %85, i32 noundef %86, ptr noundef %87, i32 noundef %88, i32 noundef 2, i32 noundef 0)
  %90 = load i32, ptr %6, align 4
  %91 = add i32 %90, 2
  store i32 %91, ptr %6, align 4
  %92 = load ptr, ptr %5, align 8
  %93 = load i32, ptr @hf_s7comm_szl_0131_0005_res, align 4
  %94 = load ptr, ptr %4, align 8
  %95 = load i32, ptr %6, align 4
  %96 = call ptr @proto_tree_add_item(ptr noundef %92, i32 noundef %93, ptr noundef %94, i32 noundef %95, i32 noundef 24, i32 noundef 0)
  %97 = load i32, ptr %6, align 4
  %98 = add i32 %97, 24
  store i32 %98, ptr %6, align 4
  %99 = load i32, ptr %6, align 4
  ret i32 %99
}